target datalayout = "e-m:e-p270:32:32-p271:32:32-p272:64:64-i64:64-i128:128-f80:128-n8:16:32:64-S128"
target triple = "x86_64-pc-linux-gnu"

@Curl_cfree = external global ptr, align 8
@Curl_cmalloc = external global ptr, align 8
@.str.12 = private unnamed_addr constant [27 x i8] c"-----BEGIN PUBLIC KEY-----\00", align 1
@.str.13 = private unnamed_addr constant [26 x i8] c"\0A-----END PUBLIC KEY-----\00", align 1

; Function Attrs: nounwind uwtable
define internal i32 @pubkey_pem_to_der(ptr noundef %0, ptr noundef %1, ptr noundef %2) #0 {
  %4 = alloca i32, align 4
  %5 = alloca ptr, align 8
  %6 = alloca ptr, align 8
  %7 = alloca ptr, align 8
  %8 = alloca ptr, align 8
  %9 = alloca ptr, align 8
  %10 = alloca ptr, align 8
  %11 = alloca i64, align 8
  %12 = alloca i64, align 8
  %13 = alloca i64, align 8
  %14 = alloca i32, align 4
  store ptr %0, ptr %5, align 8
  store ptr %1, ptr %6, align 8
  store ptr %2, ptr %7, align 8
  store i64 0, ptr %12, align 8
  %15 = load ptr, ptr %5, align 8
  %16 = icmp ne ptr %15, null
  br i1 %16, label %18, label %17

17:                                               ; preds = %3
  store i32 61, ptr %4, align 4
  br label %110

18:                                               ; preds = %3
  %19 = load ptr, ptr %5, align 8
  %20 = call ptr @strstr(ptr noundef %19, ptr noundef @.str.12) #6
  store ptr %20, ptr %9, align 8
  %21 = load ptr, ptr %9, align 8
  %22 = icmp ne ptr %21, null
  br i1 %22, label %24, label %23

23:                                               ; preds = %18
  store i32 61, ptr %4, align 4
  br label %110

24:                                               ; preds = %18
  %25 = load ptr, ptr %9, align 8
  %26 = load ptr, ptr %5, align 8
  %27 = ptrtoint ptr %25 to i64
  %28 = ptrtoint ptr %26 to i64
  %29 = sub i64 %27, %28
  store i64 %29, ptr %11, align 8
  %30 = load i64, ptr %11, align 8
  %31 = icmp ne i64 0, %30
  br i1 %31, label %32, label %41

32:                                               ; preds = %24
  %33 = load ptr, ptr %5, align 8
  %34 = load i64, ptr %11, align 8
  %35 = sub i64 %34, 1
  %36 = getelementptr inbounds i8, ptr %33, i64 %35
  %37 = load i8, ptr %36, align 1
  %38 = sext i8 %37 to i32
  %39 = icmp ne i32 10, %38
  br i1 %39, label %40, label %41

40:                                               ; preds = %32
  store i32 61, ptr %4, align 4
  br label %110

41:                                               ; preds = %32, %24
  %42 = load i64, ptr %11, align 8
  %43 = add i64 %42, 26
  store i64 %43, ptr %11, align 8
  %44 = load ptr, ptr %5, align 8
  %45 = load i64, ptr %11, align 8
  %46 = getelementptr inbounds i8, ptr %44, i64 %45
  %47 = call ptr @strstr(ptr noundef %46, ptr noundef @.str.13) #6
  store ptr %47, ptr %10, align 8
  %48 = load ptr, ptr %10, align 8
  %49 = icmp ne ptr %48, null
  br i1 %49, label %51, label %50

50:                                               ; preds = %41
  store i32 61, ptr %4, align 4
  br label %110

51:                                               ; preds = %41
  %52 = load ptr, ptr %10, align 8
  %53 = load ptr, ptr %5, align 8
  %54 = ptrtoint ptr %52 to i64
  %55 = ptrtoint ptr %53 to i64
  %56 = sub i64 %54, %55
  store i64 %56, ptr %13, align 8
  %57 = load ptr, ptr @Curl_cmalloc, align 8
  %58 = load i64, ptr %13, align 8
  %59 = load i64, ptr %11, align 8
  %60 = sub i64 %58, %59
  %61 = add i64 %60, 1
  %62 = call ptr %57(i64 noundef %61)
  store ptr %62, ptr %8, align 8
  %63 = load ptr, ptr %8, align 8
  %64 = icmp ne ptr %63, null
  br i1 %64, label %66, label %65

65:                                               ; preds = %51
  store i32 27, ptr %4, align 4
  br label %110

66:                                               ; preds = %51
  br label %67

67:                                               ; preds = %94, %66
  %68 = load i64, ptr %11, align 8
  %69 = load i64, ptr %13, align 8
  %70 = icmp ult i64 %68, %69
  br i1 %70, label %71, label %97

71:                                               ; preds = %67
  %72 = load ptr, ptr %5, align 8
  %73 = load i64, ptr %11, align 8
  %74 = getelementptr inbounds i8, ptr %72, i64 %73
  %75 = load i8, ptr %74, align 1
  %76 = sext i8 %75 to i32
  %77 = icmp ne i32 10, %76
  br i1 %77, label %78, label %94

78:                                               ; preds = %71
  %79 = load ptr, ptr %5, align 8
  %80 = load i64, ptr %11, align 8
  %81 = getelementptr inbounds i8, ptr %79, i64 %80
  %82 = load i8, ptr %81, align 1
  %83 = sext i8 %82 to i32
  %84 = icmp ne i32 13, %83
  br i1 %84, label %85, label %94

85:                                               ; preds = %78
  %86 = load ptr, ptr %5, align 8
  %87 = load i64, ptr %11, align 8
  %88 = getelementptr inbounds i8, ptr %86, i64 %87
  %89 = load i8, ptr %88, align 1
  %90 = load ptr, ptr %8, align 8
  %91 = load i64, ptr %12, align 8
  %92 = add i64 %91, 1
  store i64 %92, ptr %12, align 8
  %93 = getelementptr inbounds i8, ptr %90, i64 %91
  store i8 %89, ptr %93, align 1
  br label %94

94:                                               ; preds = %85, %78, %71
  %95 = load i64, ptr %11, align 8
  %96 = add i64 %95, 1
  store i64 %96, ptr %11, align 8
  br label %67, !llvm.loop !13

97:                                               ; preds = %67
  %98 = load ptr, ptr %8, align 8
  %99 = load i64, ptr %12, align 8
  %100 = getelementptr inbounds i8, ptr %98, i64 %99
  store i8 0, ptr %100, align 1
  %101 = load ptr, ptr %8, align 8
  %102 = load ptr, ptr %6, align 8
  %103 = load ptr, ptr %7, align 8
  %104 = call i32 @Curl_base64_decode(ptr noundef %101, ptr noundef %102, ptr noundef %103)
  store i32 %104, ptr %14, align 4
  br label %105

105:                                              ; preds = %97
  %106 = load ptr, ptr @Curl_cfree, align 8
  %107 = load ptr, ptr %8, align 8
  call void %106(ptr noundef %107)
  store ptr null, ptr %8, align 8
  br label %108

108:                                              ; preds = %105
  %109 = load i32, ptr %14, align 4
  store i32 %109, ptr %4, align 4
  br label %110

110:                                              ; preds = %108, %65, %50, %40, %23, %17
  %111 = load i32, ptr %4, align 4
  ret i32 %111
}