; Function Attrs: nounwind uwtable
define internal fastcc i32 @pubkey_pem_to_der(ptr noundef nonnull %0, ptr noundef nonnull %1, ptr noundef nonnull %2) unnamed_addr #2 {
  %4 = tail call ptr @strstr(ptr noundef nonnull dereferenceable(1) %0, ptr noundef nonnull dereferenceable(1) @.str.12) #19
  %.not = icmp eq ptr %4, null
  br i1 %.not, label %34, label %5

5:                                                ; preds = %3
  %6 = ptrtoint ptr %4 to i64
  %7 = ptrtoint ptr %0 to i64
  %8 = sub i64 %6, %7
  %.not42 = icmp eq ptr %4, %0
  br i1 %.not42, label %13, label %9

9:                                                ; preds = %5
  %10 = getelementptr i8, ptr %0, i64 %8
  %11 = getelementptr i8, ptr %10, i64 -1
  %12 = load i8, ptr %11, align 1
  %.not43 = icmp eq i8 %12, 10
  br i1 %.not43, label %13, label %34

13:                                               ; preds = %9, %5
  %14 = add i64 %8, 26
  %15 = getelementptr inbounds i8, ptr %0, i64 %14
  %16 = tail call ptr @strstr(ptr noundef nonnull dereferenceable(1) %15, ptr noundef nonnull dereferenceable(1) @.str.13) #19
  %.not44 = icmp eq ptr %16, null
  br i1 %.not44, label %34, label %17

17:                                               ; preds = %13
  %18 = ptrtoint ptr %16 to i64
  %19 = sub i64 %18, %7
  %20 = load ptr, ptr @Curl_cmalloc, align 8
  %reass.sub = sub i64 %19, %8
  %21 = add i64 %reass.sub, -25
  %22 = tail call ptr %20(i64 noundef %21) #18
  %.not45 = icmp eq ptr %22, null
  br i1 %.not45, label %34, label %.preheader

.preheader:                                       ; preds = %17
  %23 = icmp ult i64 %14, %19
  br i1 %23, label %.lr.ph, label %._crit_edge

.lr.ph:                                           ; preds = %.preheader, %29
  %.03549 = phi i64 [ %.1, %29 ], [ 0, %.preheader ]
  %.03648 = phi i64 [ %30, %29 ], [ %14, %.preheader ]
  %24 = getelementptr inbounds i8, ptr %0, i64 %.03648
  %25 = load i8, ptr %24, align 1
  switch i8 %25, label %26 [
    i8 10, label %29
    i8 13, label %29
  ]

26:                                               ; preds = %.lr.ph
  %27 = add i64 %.03549, 1
  %28 = getelementptr inbounds i8, ptr %22, i64 %.03549
  store i8 %25, ptr %28, align 1
  br label %29

29:                                               ; preds = %.lr.ph, %.lr.ph, %26
  %.1 = phi i64 [ %27, %26 ], [ %.03549, %.lr.ph ], [ %.03549, %.lr.ph ]
  %30 = add nuw i64 %.03648, 1
  %exitcond.not = icmp eq i64 %30, %19
  br i1 %exitcond.not, label %._crit_edge, label %.lr.ph, !llvm.loop !13

._crit_edge:                                      ; preds = %29, %.preheader
  %.035.lcssa = phi i64 [ 0, %.preheader ], [ %.1, %29 ]
  %31 = getelementptr inbounds i8, ptr %22, i64 %.035.lcssa
  store i8 0, ptr %31, align 1
  %32 = tail call i32 @Curl_base64_decode(ptr noundef nonnull %22, ptr noundef nonnull %1, ptr noundef nonnull %2) #18
  %33 = load ptr, ptr @Curl_cfree, align 8
  tail call void %33(ptr noundef nonnull %22) #18
  br label %34

34:                                               ; preds = %17, %13, %9, %3, %._crit_edge
  %.0 = phi i32 [ %32, %._crit_edge ], [ 61, %3 ], [ 61, %9 ], [ 61, %13 ], [ 27, %17 ]
  ret i32 %.0
}